target datalayout = "e-m:e-p270:32:32-p271:32:32-p272:64:64-i64:64-i128:128-f80:128-n8:16:32:64-S128"
target triple = "x86_64-pc-linux-gnu"

; Function Attrs: mustprogress nounwind uwtable
define hidden i32 @mbedtls_asn1_get_len(ptr noundef %0, ptr noundef %1, ptr noundef %2) #0 {
  %4 = alloca i32, align 4
  %5 = alloca ptr, align 8
  %6 = alloca ptr, align 8
  %7 = alloca ptr, align 8
  store ptr %0, ptr %5, align 8, !tbaa !3
  store ptr %1, ptr %6, align 8, !tbaa !8
  store ptr %2, ptr %7, align 8, !tbaa !10
  %8 = load ptr, ptr %6, align 8, !tbaa !8
  %9 = load ptr, ptr %5, align 8, !tbaa !3
  %10 = load ptr, ptr %9, align 8, !tbaa !8
  %11 = ptrtoint ptr %8 to i64
  %12 = ptrtoint ptr %10 to i64
  %13 = sub i64 %11, %12
  %14 = icmp slt i64 %13, 1
  br i1 %14, label %15, label %16

15:                                               ; preds = %3
  store i32 -96, ptr %4, align 4
  br label %168

16:                                               ; preds = %3
  %17 = load ptr, ptr %5, align 8, !tbaa !3
  %18 = load ptr, ptr %17, align 8, !tbaa !8
  %19 = load i8, ptr %18, align 1, !tbaa !12
  %20 = zext i8 %19 to i32
  %21 = and i32 %20, 128
  %22 = icmp eq i32 %21, 0
  br i1 %22, label %23, label %30

23:                                               ; preds = %16
  %24 = load ptr, ptr %5, align 8, !tbaa !3
  %25 = load ptr, ptr %24, align 8, !tbaa !8
  %26 = getelementptr inbounds nuw i8, ptr %25, i32 1
  store ptr %26, ptr %24, align 8, !tbaa !8
  %27 = load i8, ptr %25, align 1, !tbaa !12
  %28 = zext i8 %27 to i64
  %29 = load ptr, ptr %7, align 8, !tbaa !10
  store i64 %28, ptr %29, align 8, !tbaa !13
  br label %156

30:                                               ; preds = %16
  %31 = load ptr, ptr %5, align 8, !tbaa !3
  %32 = load ptr, ptr %31, align 8, !tbaa !8
  %33 = load i8, ptr %32, align 1, !tbaa !12
  %34 = zext i8 %33 to i32
  %35 = and i32 %34, 127
  switch i32 %35, label %154 [
    i32 1, label %36
    i32 2, label %55
    i32 3, label %81
    i32 4, label %114
  ]

36:                                               ; preds = %30
  %37 = load ptr, ptr %6, align 8, !tbaa !8
  %38 = load ptr, ptr %5, align 8, !tbaa !3
  %39 = load ptr, ptr %38, align 8, !tbaa !8
  %40 = ptrtoint ptr %37 to i64
  %41 = ptrtoint ptr %39 to i64
  %42 = sub i64 %40, %41
  %43 = icmp slt i64 %42, 2
  br i1 %43, label %44, label %45

44:                                               ; preds = %36
  store i32 -96, ptr %4, align 4
  br label %168

45:                                               ; preds = %36
  %46 = load ptr, ptr %5, align 8, !tbaa !3
  %47 = load ptr, ptr %46, align 8, !tbaa !8
  %48 = getelementptr inbounds i8, ptr %47, i64 1
  %49 = load i8, ptr %48, align 1, !tbaa !12
  %50 = zext i8 %49 to i64
  %51 = load ptr, ptr %7, align 8, !tbaa !10
  store i64 %50, ptr %51, align 8, !tbaa !13
  %52 = load ptr, ptr %5, align 8, !tbaa !3
  %53 = load ptr, ptr %52, align 8, !tbaa !8
  %54 = getelementptr inbounds i8, ptr %53, i64 2
  store ptr %54, ptr %52, align 8, !tbaa !8
  br label %155

55:                                               ; preds = %30
  %56 = load ptr, ptr %6, align 8, !tbaa !8
  %57 = load ptr, ptr %5, align 8, !tbaa !3
  %58 = load ptr, ptr %57, align 8, !tbaa !8
  %59 = ptrtoint ptr %56 to i64
  %60 = ptrtoint ptr %58 to i64
  %61 = sub i64 %59, %60
  %62 = icmp slt i64 %61, 3
  br i1 %62, label %63, label %64

63:                                               ; preds = %55
  store i32 -96, ptr %4, align 4
  br label %168

64:                                               ; preds = %55
  %65 = load ptr, ptr %5, align 8, !tbaa !3
  %66 = load ptr, ptr %65, align 8, !tbaa !8
  %67 = getelementptr inbounds i8, ptr %66, i64 1
  %68 = load i8, ptr %67, align 1, !tbaa !12
  %69 = zext i8 %68 to i64
  %70 = shl i64 %69, 8
  %71 = load ptr, ptr %5, align 8, !tbaa !3
  %72 = load ptr, ptr %71, align 8, !tbaa !8
  %73 = getelementptr inbounds i8, ptr %72, i64 2
  %74 = load i8, ptr %73, align 1, !tbaa !12
  %75 = zext i8 %74 to i64
  %76 = or i64 %70, %75
  %77 = load ptr, ptr %7, align 8, !tbaa !10
  store i64 %76, ptr %77, align 8, !tbaa !13
  %78 = load ptr, ptr %5, align 8, !tbaa !3
  %79 = load ptr, ptr %78, align 8, !tbaa !8
  %80 = getelementptr inbounds i8, ptr %79, i64 3
  store ptr %80, ptr %78, align 8, !tbaa !8
  br label %155

81:                                               ; preds = %30
  %82 = load ptr, ptr %6, align 8, !tbaa !8
  %83 = load ptr, ptr %5, align 8, !tbaa !3
  %84 = load ptr, ptr %83, align 8, !tbaa !8
  %85 = ptrtoint ptr %82 to i64
  %86 = ptrtoint ptr %84 to i64
  %87 = sub i64 %85, %86
  %88 = icmp slt i64 %87, 4
  br i1 %88, label %89, label %90

89:                                               ; preds = %81
  store i32 -96, ptr %4, align 4
  br label %168

90:                                               ; preds = %81
  %91 = load ptr, ptr %5, align 8, !tbaa !3
  %92 = load ptr, ptr %91, align 8, !tbaa !8
  %93 = getelementptr inbounds i8, ptr %92, i64 1
  %94 = load i8, ptr %93, align 1, !tbaa !12
  %95 = zext i8 %94 to i64
  %96 = shl i64 %95, 16
  %97 = load ptr, ptr %5, align 8, !tbaa !3
  %98 = load ptr, ptr %97, align 8, !tbaa !8
  %99 = getelementptr inbounds i8, ptr %98, i64 2
  %100 = load i8, ptr %99, align 1, !tbaa !12
  %101 = zext i8 %100 to i64
  %102 = shl i64 %101, 8
  %103 = or i64 %96, %102
  %104 = load ptr, ptr %5, align 8, !tbaa !3
  %105 = load ptr, ptr %104, align 8, !tbaa !8
  %106 = getelementptr inbounds i8, ptr %105, i64 3
  %107 = load i8, ptr %106, align 1, !tbaa !12
  %108 = zext i8 %107 to i64
  %109 = or i64 %103, %108
  %110 = load ptr, ptr %7, align 8, !tbaa !10
  store i64 %109, ptr %110, align 8, !tbaa !13
  %111 = load ptr, ptr %5, align 8, !tbaa !3
  %112 = load ptr, ptr %111, align 8, !tbaa !8
  %113 = getelementptr inbounds i8, ptr %112, i64 4
  store ptr %113, ptr %111, align 8, !tbaa !8
  br label %155

114:                                              ; preds = %30
  %115 = load ptr, ptr %6, align 8, !tbaa !8
  %116 = load ptr, ptr %5, align 8, !tbaa !3
  %117 = load ptr, ptr %116, align 8, !tbaa !8
  %118 = ptrtoint ptr %115 to i64
  %119 = ptrtoint ptr %117 to i64
  %120 = sub i64 %118, %119
  %121 = icmp slt i64 %120, 5
  br i1 %121, label %122, label %123

122:                                              ; preds = %114
  store i32 -96, ptr %4, align 4
  br label %168

123:                                              ; preds = %114
  %124 = load ptr, ptr %5, align 8, !tbaa !3
  %125 = load ptr, ptr %124, align 8, !tbaa !8
  %126 = getelementptr inbounds i8, ptr %125, i64 1
  %127 = load i8, ptr %126, align 1, !tbaa !12
  %128 = zext i8 %127 to i64
  %129 = shl i64 %128, 24
  %130 = load ptr, ptr %5, align 8, !tbaa !3
  %131 = load ptr, ptr %130, align 8, !tbaa !8
  %132 = getelementptr inbounds i8, ptr %131, i64 2
  %133 = load i8, ptr %132, align 1, !tbaa !12
  %134 = zext i8 %133 to i64
  %135 = shl i64 %134, 16
  %136 = or i64 %129, %135
  %137 = load ptr, ptr %5, align 8, !tbaa !3
  %138 = load ptr, ptr %137, align 8, !tbaa !8
  %139 = getelementptr inbounds i8, ptr %138, i64 3
  %140 = load i8, ptr %139, align 1, !tbaa !12
  %141 = zext i8 %140 to i64
  %142 = shl i64 %141, 8
  %143 = or i64 %136, %142
  %144 = load ptr, ptr %5, align 8, !tbaa !3
  %145 = load ptr, ptr %144, align 8, !tbaa !8
  %146 = getelementptr inbounds i8, ptr %145, i64 4
  %147 = load i8, ptr %146, align 1, !tbaa !12
  %148 = zext i8 %147 to i64
  %149 = or i64 %143, %148
  %150 = load ptr, ptr %7, align 8, !tbaa !10
  store i64 %149, ptr %150, align 8, !tbaa !13
  %151 = load ptr, ptr %5, align 8, !tbaa !3
  %152 = load ptr, ptr %151, align 8, !tbaa !8
  %153 = getelementptr inbounds i8, ptr %152, i64 5
  store ptr %153, ptr %151, align 8, !tbaa !8
  br label %155

154:                                              ; preds = %30
  store i32 -100, ptr %4, align 4
  br label %168

155:                                              ; preds = %123, %90, %64, %45
  br label %156

156:                                              ; preds = %155, %23
  %157 = load ptr, ptr %7, align 8, !tbaa !10
  %158 = load i64, ptr %157, align 8, !tbaa !13
  %159 = load ptr, ptr %6, align 8, !tbaa !8
  %160 = load ptr, ptr %5, align 8, !tbaa !3
  %161 = load ptr, ptr %160, align 8, !tbaa !8
  %162 = ptrtoint ptr %159 to i64
  %163 = ptrtoint ptr %161 to i64
  %164 = sub i64 %162, %163
  %165 = icmp ugt i64 %158, %164
  br i1 %165, label %166, label %167

166:                                              ; preds = %156
  store i32 -96, ptr %4, align 4
  br label %168

167:                                              ; preds = %156
  store i32 0, ptr %4, align 4
  br label %168

168:                                              ; preds = %167, %166, %154, %122, %89, %63, %44, %15
  %169 = load i32, ptr %4, align 4
  ret i32 %169
}

; Function Attrs: mustprogress nounwind uwtable
define hidden i32 @mbedtls_asn1_get_tag(ptr noundef %0, ptr noundef %1, ptr noundef %2, i32 noundef %3) #0 {
  %5 = alloca i32, align 4
  %6 = alloca ptr, align 8
  %7 = alloca ptr, align 8
  %8 = alloca ptr, align 8
  %9 = alloca i32, align 4
  store ptr %0, ptr %6, align 8, !tbaa !3
  store ptr %1, ptr %7, align 8, !tbaa !8
  store ptr %2, ptr %8, align 8, !tbaa !10
  store i32 %3, ptr %9, align 4, !tbaa !15
  %10 = load ptr, ptr %7, align 8, !tbaa !8
  %11 = load ptr, ptr %6, align 8, !tbaa !3
  %12 = load ptr, ptr %11, align 8, !tbaa !8
  %13 = ptrtoint ptr %10 to i64
  %14 = ptrtoint ptr %12 to i64
  %15 = sub i64 %13, %14
  %16 = icmp slt i64 %15, 1
  br i1 %16, label %17, label %18

17:                                               ; preds = %4
  store i32 -96, ptr %5, align 4
  br label %34

18:                                               ; preds = %4
  %19 = load ptr, ptr %6, align 8, !tbaa !3
  %20 = load ptr, ptr %19, align 8, !tbaa !8
  %21 = load i8, ptr %20, align 1, !tbaa !12
  %22 = zext i8 %21 to i32
  %23 = load i32, ptr %9, align 4, !tbaa !15
  %24 = icmp ne i32 %22, %23
  br i1 %24, label %25, label %26

25:                                               ; preds = %18
  store i32 -98, ptr %5, align 4
  br label %34

26:                                               ; preds = %18
  %27 = load ptr, ptr %6, align 8, !tbaa !3
  %28 = load ptr, ptr %27, align 8, !tbaa !8
  %29 = getelementptr inbounds nuw i8, ptr %28, i32 1
  store ptr %29, ptr %27, align 8, !tbaa !8
  %30 = load ptr, ptr %6, align 8, !tbaa !3
  %31 = load ptr, ptr %7, align 8, !tbaa !8
  %32 = load ptr, ptr %8, align 8, !tbaa !10
  %33 = call i32 @mbedtls_asn1_get_len(ptr noundef %30, ptr noundef %31, ptr noundef %32)
  store i32 %33, ptr %5, align 4
  br label %34

34:                                               ; preds = %26, %25, %17
  %35 = load i32, ptr %5, align 4
  ret i32 %35
}

; Function Attrs: mustprogress nounwind uwtable
define internal noundef i32 @_ZL19asn1_get_tagged_intPPhPKhiPi(ptr noundef %0, ptr noundef %1, i32 noundef %2, ptr noundef %3) #0 {
  %5 = alloca i32, align 4
  %6 = alloca ptr, align 8
  %7 = alloca ptr, align 8
  %8 = alloca i32, align 4
  %9 = alloca ptr, align 8
  %10 = alloca i32, align 4
  %11 = alloca i64, align 8
  %12 = alloca i32, align 4
  store ptr %0, ptr %6, align 8, !tbaa !3
  store ptr %1, ptr %7, align 8, !tbaa !8
  store i32 %2, ptr %8, align 4, !tbaa !15
  store ptr %3, ptr %9, align 8, !tbaa !17
  call void @llvm.lifetime.start.p0(i64 4, ptr %10) #8
  store i32 -110, ptr %10, align 4, !tbaa !15
  call void @llvm.lifetime.start.p0(i64 8, ptr %11) #8
  %13 = load ptr, ptr %6, align 8, !tbaa !3
  %14 = load ptr, ptr %7, align 8, !tbaa !8
  %15 = load i32, ptr %8, align 4, !tbaa !15
  %16 = call i32 @mbedtls_asn1_get_tag(ptr noundef %13, ptr noundef %14, ptr noundef %11, i32 noundef %15)
  store i32 %16, ptr %10, align 4, !tbaa !15
  %17 = icmp ne i32 %16, 0
  br i1 %17, label %18, label %20

18:                                               ; preds = %4
  %19 = load i32, ptr %10, align 4, !tbaa !15
  store i32 %19, ptr %5, align 4
  store i32 1, ptr %12, align 4
  br label %85

20:                                               ; preds = %4
  %21 = load i64, ptr %11, align 8, !tbaa !13
  %22 = icmp eq i64 %21, 0
  br i1 %22, label %23, label %24

23:                                               ; preds = %20
  store i32 -100, ptr %5, align 4
  store i32 1, ptr %12, align 4
  br label %85

24:                                               ; preds = %20
  %25 = load ptr, ptr %6, align 8, !tbaa !3
  %26 = load ptr, ptr %25, align 8, !tbaa !8
  %27 = load i8, ptr %26, align 1, !tbaa !12
  %28 = zext i8 %27 to i32
  %29 = and i32 %28, 128
  %30 = icmp ne i32 %29, 0
  br i1 %30, label %31, label %32

31:                                               ; preds = %24
  store i32 -100, ptr %5, align 4
  store i32 1, ptr %12, align 4
  br label %85

32:                                               ; preds = %24
  br label %33

33:                                               ; preds = %44, %32
  %34 = load i64, ptr %11, align 8, !tbaa !13
  %35 = icmp ugt i64 %34, 0
  br i1 %35, label %36, label %42

36:                                               ; preds = %33
  %37 = load ptr, ptr %6, align 8, !tbaa !3
  %38 = load ptr, ptr %37, align 8, !tbaa !8
  %39 = load i8, ptr %38, align 1, !tbaa !12
  %40 = zext i8 %39 to i32
  %41 = icmp eq i32 %40, 0
  br label %42

42:                                               ; preds = %36, %33
  %43 = phi i1 [ false, %33 ], [ %41, %36 ]
  br i1 %43, label %44, label %50

44:                                               ; preds = %42
  %45 = load ptr, ptr %6, align 8, !tbaa !3
  %46 = load ptr, ptr %45, align 8, !tbaa !8
  %47 = getelementptr inbounds nuw i8, ptr %46, i32 1
  store ptr %47, ptr %45, align 8, !tbaa !8
  %48 = load i64, ptr %11, align 8, !tbaa !13
  %49 = add i64 %48, -1
  store i64 %49, ptr %11, align 8, !tbaa !13
  br label %33, !llvm.loop !19

50:                                               ; preds = %42
  %51 = load i64, ptr %11, align 8, !tbaa !13
  %52 = icmp ugt i64 %51, 4
  br i1 %52, label %53, label %54

53:                                               ; preds = %50
  store i32 -100, ptr %5, align 4
  store i32 1, ptr %12, align 4
  br label %85

54:                                               ; preds = %50
  %55 = load i64, ptr %11, align 8, !tbaa !13
  %56 = icmp eq i64 %55, 4
  br i1 %56, label %57, label %65

57:                                               ; preds = %54
  %58 = load ptr, ptr %6, align 8, !tbaa !3
  %59 = load ptr, ptr %58, align 8, !tbaa !8
  %60 = load i8, ptr %59, align 1, !tbaa !12
  %61 = zext i8 %60 to i32
  %62 = and i32 %61, 128
  %63 = icmp ne i32 %62, 0
  br i1 %63, label %64, label %65

64:                                               ; preds = %57
  store i32 -100, ptr %5, align 4
  store i32 1, ptr %12, align 4
  br label %85

65:                                               ; preds = %57, %54
  %66 = load ptr, ptr %9, align 8, !tbaa !17
  store i32 0, ptr %66, align 4, !tbaa !15
  br label %67

67:                                               ; preds = %71, %65
  %68 = load i64, ptr %11, align 8, !tbaa !13
  %69 = add i64 %68, -1
  store i64 %69, ptr %11, align 8, !tbaa !13
  %70 = icmp ugt i64 %68, 0
  br i1 %70, label %71, label %84

71:                                               ; preds = %67
  %72 = load ptr, ptr %9, align 8, !tbaa !17
  %73 = load i32, ptr %72, align 4, !tbaa !15
  %74 = shl i32 %73, 8
  %75 = load ptr, ptr %6, align 8, !tbaa !3
  %76 = load ptr, ptr %75, align 8, !tbaa !8
  %77 = load i8, ptr %76, align 1, !tbaa !12
  %78 = zext i8 %77 to i32
  %79 = or i32 %74, %78
  %80 = load ptr, ptr %9, align 8, !tbaa !17
  store i32 %79, ptr %80, align 4, !tbaa !15
  %81 = load ptr, ptr %6, align 8, !tbaa !3
  %82 = load ptr, ptr %81, align 8, !tbaa !8
  %83 = getelementptr inbounds nuw i8, ptr %82, i32 1
  store ptr %83, ptr %81, align 8, !tbaa !8
  br label %67, !llvm.loop !21

84:                                               ; preds = %67
  store i32 0, ptr %5, align 4
  store i32 1, ptr %12, align 4
  br label %85

85:                                               ; preds = %84, %64, %53, %31, %23, %18
  call void @llvm.lifetime.end.p0(i64 8, ptr %11) #8
  call void @llvm.lifetime.end.p0(i64 4, ptr %10) #8
  %86 = load i32, ptr %5, align 4
  ret i32 %86
}