; Function Attrs: mustprogress nofree norecurse nosync nounwind memory(read, argmem: readwrite, inaccessiblemem: none) uwtable
define internal fastcc noundef range(i32 -100, 1) i32 @_ZL19asn1_get_tagged_intPPhPKhiPi(ptr noundef captures(none) %0, ptr noundef %1, i32 noundef range(i32 2, 11) %2, ptr noundef writeonly captures(none) %3) unnamed_addr #2 {
  %5 = load ptr, ptr %0, align 8, !tbaa !3
  %6 = ptrtoint ptr %1 to i64
  %7 = ptrtoint ptr %5 to i64
  %8 = sub i64 %6, %7
  %9 = icmp slt i64 %8, 1
  br i1 %9, label %mbedtls_asn1_get_tag.exit.thread, label %10

10:                                               ; preds = %4
  %11 = load i8, ptr %5, align 1, !tbaa !8
  %12 = zext i8 %11 to i32
  %.not.i = icmp eq i32 %2, %12
  br i1 %.not.i, label %13, label %mbedtls_asn1_get_tag.exit.thread

13:                                               ; preds = %10
  %14 = getelementptr inbounds nuw i8, ptr %5, i64 1
  store ptr %14, ptr %0, align 8, !tbaa !3
  %15 = ptrtoint ptr %14 to i64
  %16 = sub i64 %6, %15
  %17 = icmp slt i64 %16, 1
  br i1 %17, label %mbedtls_asn1_get_tag.exit.thread, label %18

18:                                               ; preds = %13
  %19 = load i8, ptr %14, align 1, !tbaa !8
  %20 = icmp sgt i8 %19, -1
  br i1 %20, label %21, label %25

21:                                               ; preds = %18
  %22 = getelementptr inbounds nuw i8, ptr %5, i64 2
  store ptr %22, ptr %0, align 8, !tbaa !3
  %23 = load i8, ptr %14, align 1, !tbaa !8
  %24 = zext i8 %23 to i64
  br label %85

25:                                               ; preds = %18
  %26 = and i8 %19, 127
  switch i8 %26, label %mbedtls_asn1_get_tag.exit.thread [
    i8 1, label %27
    i8 2, label %34
    i8 3, label %46
    i8 4, label %63
  ]

27:                                               ; preds = %25
  %28 = icmp eq i64 %16, 1
  br i1 %28, label %mbedtls_asn1_get_tag.exit.thread, label %29

29:                                               ; preds = %27
  %30 = getelementptr inbounds nuw i8, ptr %5, i64 2
  %31 = load i8, ptr %30, align 1, !tbaa !8
  %32 = zext i8 %31 to i64
  %33 = getelementptr inbounds nuw i8, ptr %5, i64 3
  store ptr %33, ptr %0, align 8, !tbaa !3
  br label %85

34:                                               ; preds = %25
  %35 = icmp samesign ult i64 %16, 3
  br i1 %35, label %mbedtls_asn1_get_tag.exit.thread, label %36

36:                                               ; preds = %34
  %37 = getelementptr inbounds nuw i8, ptr %5, i64 2
  %38 = load i8, ptr %37, align 1, !tbaa !8
  %39 = zext i8 %38 to i64
  %40 = shl nuw nsw i64 %39, 8
  %41 = getelementptr inbounds nuw i8, ptr %5, i64 3
  %42 = load i8, ptr %41, align 1, !tbaa !8
  %43 = zext i8 %42 to i64
  %44 = or disjoint i64 %40, %43
  %45 = getelementptr inbounds nuw i8, ptr %5, i64 4
  store ptr %45, ptr %0, align 8, !tbaa !3
  br label %85

46:                                               ; preds = %25
  %47 = icmp samesign ult i64 %16, 4
  br i1 %47, label %mbedtls_asn1_get_tag.exit.thread, label %48

48:                                               ; preds = %46
  %49 = getelementptr inbounds nuw i8, ptr %5, i64 2
  %50 = load i8, ptr %49, align 1, !tbaa !8
  %51 = zext i8 %50 to i64
  %52 = shl nuw nsw i64 %51, 16
  %53 = getelementptr inbounds nuw i8, ptr %5, i64 3
  %54 = load i8, ptr %53, align 1, !tbaa !8
  %55 = zext i8 %54 to i64
  %56 = shl nuw nsw i64 %55, 8
  %57 = or disjoint i64 %56, %52
  %58 = getelementptr inbounds nuw i8, ptr %5, i64 4
  %59 = load i8, ptr %58, align 1, !tbaa !8
  %60 = zext i8 %59 to i64
  %61 = or disjoint i64 %57, %60
  %62 = getelementptr inbounds nuw i8, ptr %5, i64 5
  store ptr %62, ptr %0, align 8, !tbaa !3
  br label %85

63:                                               ; preds = %25
  %64 = icmp samesign ult i64 %16, 5
  br i1 %64, label %mbedtls_asn1_get_tag.exit.thread, label %65

65:                                               ; preds = %63
  %66 = getelementptr inbounds nuw i8, ptr %5, i64 2
  %67 = load i8, ptr %66, align 1, !tbaa !8
  %68 = zext i8 %67 to i64
  %69 = shl nuw nsw i64 %68, 24
  %70 = getelementptr inbounds nuw i8, ptr %5, i64 3
  %71 = load i8, ptr %70, align 1, !tbaa !8
  %72 = zext i8 %71 to i64
  %73 = shl nuw nsw i64 %72, 16
  %74 = or disjoint i64 %73, %69
  %75 = getelementptr inbounds nuw i8, ptr %5, i64 4
  %76 = load i8, ptr %75, align 1, !tbaa !8
  %77 = zext i8 %76 to i64
  %78 = shl nuw nsw i64 %77, 8
  %79 = or disjoint i64 %74, %78
  %80 = getelementptr inbounds nuw i8, ptr %5, i64 5
  %81 = load i8, ptr %80, align 1, !tbaa !8
  %82 = zext i8 %81 to i64
  %83 = or disjoint i64 %79, %82
  %84 = getelementptr inbounds nuw i8, ptr %5, i64 6
  store ptr %84, ptr %0, align 8, !tbaa !3
  br label %85

85:                                               ; preds = %65, %48, %36, %29, %21
  %.3 = phi i64 [ %24, %21 ], [ %83, %65 ], [ %61, %48 ], [ %44, %36 ], [ %32, %29 ]
  %.promoted = phi ptr [ %22, %21 ], [ %84, %65 ], [ %62, %48 ], [ %45, %36 ], [ %33, %29 ]
  %86 = ptrtoint ptr %.promoted to i64
  %87 = sub i64 %6, %86
  %88 = icmp ugt i64 %.3, %87
  br i1 %88, label %mbedtls_asn1_get_tag.exit.thread, label %mbedtls_asn1_get_tag.exit

mbedtls_asn1_get_tag.exit:                        ; preds = %85
  %89 = icmp eq i64 %.3, 0
  br i1 %89, label %mbedtls_asn1_get_tag.exit.thread, label %90

90:                                               ; preds = %mbedtls_asn1_get_tag.exit
  %91 = load i8, ptr %.promoted, align 1, !tbaa !8
  %.not15 = icmp sgt i8 %91, -1
  br i1 %.not15, label %.preheader.preheader, label %mbedtls_asn1_get_tag.exit.thread

.preheader.preheader:                             ; preds = %90
  %92 = icmp eq i8 %91, 0
  br i1 %92, label %.lr.ph55, label %.critedge

thread-pre-split:                                 ; preds = %.lr.ph55
  %.pr = load i8, ptr %95, align 1, !tbaa !8
  %93 = icmp eq i8 %.pr, 0
  br i1 %93, label %.lr.ph55, label %.preheader..critedge_crit_edge

.lr.ph55:                                         ; preds = %.preheader.preheader, %thread-pre-split
  %94 = phi ptr [ %95, %thread-pre-split ], [ %.promoted, %.preheader.preheader ]
  %.0243054 = phi i64 [ %96, %thread-pre-split ], [ %.3, %.preheader.preheader ]
  %95 = getelementptr inbounds nuw i8, ptr %94, i64 1
  store ptr %95, ptr %0, align 8, !tbaa !3
  %96 = add nsw i64 %.0243054, -1
  %.not16 = icmp eq i64 %96, 0
  br i1 %.not16, label %.thread.thread, label %thread-pre-split, !llvm.loop !13

.thread.thread:                                   ; preds = %.lr.ph55
  store i32 0, ptr %3, align 4, !tbaa !11
  br label %mbedtls_asn1_get_tag.exit.thread

.preheader..critedge_crit_edge:                   ; preds = %thread-pre-split
  %97 = icmp sgt i8 %.pr, -1
  br label %.critedge

.critedge:                                        ; preds = %.preheader..critedge_crit_edge, %.preheader.preheader
  %.lcssa52 = phi i1 [ %97, %.preheader..critedge_crit_edge ], [ true, %.preheader.preheader ]
  %.02430.lcssa = phi i64 [ %96, %.preheader..critedge_crit_edge ], [ %.3, %.preheader.preheader ]
  %.lcssa = phi ptr [ %95, %.preheader..critedge_crit_edge ], [ %.promoted, %.preheader.preheader ]
  %98 = icmp ule i64 %.02430.lcssa, 4
  %99 = icmp ne i64 %.02430.lcssa, 4
  %brmerge = or i1 %99, %.lcssa52
  %or.cond = and i1 %98, %brmerge
  br i1 %or.cond, label %.lr.ph, label %mbedtls_asn1_get_tag.exit.thread

.lr.ph:                                           ; preds = %.critedge
  store i32 0, ptr %3, align 4, !tbaa !11
  br label %100

100:                                              ; preds = %.lr.ph, %100
  %101 = phi ptr [ %.lcssa, %.lr.ph ], [ %108, %100 ]
  %102 = phi i32 [ 0, %.lr.ph ], [ %107, %100 ]
  %.132 = phi i64 [ %.02430.lcssa, %.lr.ph ], [ %103, %100 ]
  %103 = add i64 %.132, -1
  %104 = shl i32 %102, 8
  %105 = load i8, ptr %101, align 1, !tbaa !8
  %106 = zext i8 %105 to i32
  %107 = or disjoint i32 %104, %106
  store i32 %107, ptr %3, align 4, !tbaa !11
  %108 = getelementptr inbounds nuw i8, ptr %101, i64 1
  store ptr %108, ptr %0, align 8, !tbaa !3
  %.not18 = icmp eq i64 %103, 0
  br i1 %.not18, label %mbedtls_asn1_get_tag.exit.thread, label %100, !llvm.loop !15

mbedtls_asn1_get_tag.exit.thread:                 ; preds = %100, %.thread.thread, %85, %25, %63, %46, %34, %27, %13, %10, %4, %.critedge, %90, %mbedtls_asn1_get_tag.exit
  %.0 = phi i32 [ -100, %mbedtls_asn1_get_tag.exit ], [ -100, %90 ], [ -100, %.critedge ], [ -100, %25 ], [ -96, %63 ], [ -96, %46 ], [ -96, %34 ], [ -96, %27 ], [ -96, %13 ], [ -98, %10 ], [ -96, %4 ], [ -96, %85 ], [ 0, %.thread.thread ], [ 0, %100 ]
  ret i32 %.0
}